; Function Attrs: mustprogress nofree norecurse nosync nounwind willreturn memory(read, inaccessiblemem: none) uwtable
define internal fastcc noundef range(i32 0, 12) i32 @_ZL21ClassifyExprValueKindRKN5clang11LangOptionsEPKNS_4ExprENS_13ExprValueKindE(i64 %.0.val, ptr noundef readonly captures(none) %0, i32 noundef %1) unnamed_addr #3 {
  switch i32 %1, label %19 [
    i32 0, label %3
    i32 1, label %20
    i32 2, label %18
  ]

3:                                                ; preds = %2
  %4 = and i64 %.0.val, 2048
  %.not = icmp eq i64 %4, 0
  br i1 %.not, label %20, label %5

5:                                                ; preds = %3
  %6 = getelementptr inbounds nuw i8, ptr %0, i64 8
  %.sroa.0.0.copyload.i = load i64, ptr %6, align 8
  %7 = and i64 %.sroa.0.0.copyload.i, -16
  %8 = inttoptr i64 %7 to ptr
  %9 = load ptr, ptr %8, align 16
  %10 = getelementptr inbounds nuw i8, ptr %9, i64 8
  %.sroa.0.0.copyload.i.i.i.i.i = load i64, ptr %10, align 8
  %11 = and i64 %.sroa.0.0.copyload.i.i.i.i.i, -16
  %12 = inttoptr i64 %11 to ptr
  %13 = load ptr, ptr %12, align 16
  %14 = getelementptr inbounds nuw i8, ptr %13, i64 16
  %15 = load i8, ptr %14, align 16
  %16 = icmp eq i8 %15, 47
  %17 = add i8 %15, -2
  %switch.i.i.i.i.i.i.i.i.i.i = icmp ult i8 %17, 5
  %..i = select i1 %switch.i.i.i.i.i.i.i.i.i.i, i32 9, i32 11
  %.0.i = select i1 %16, i32 8, i32 %..i
  br label %20

18:                                               ; preds = %2
  br label %20

19:                                               ; preds = %2
  unreachable

20:                                               ; preds = %2, %5, %3, %18
  %.0 = phi i32 [ 1, %18 ], [ %.0.i, %5 ], [ 11, %3 ], [ 0, %2 ]
  ret i32 %.0
}